; Function Attrs: mustprogress uwtable
define void @_ZN3zmq14ws_connecter_t12process_termEi(ptr noundef nonnull align 8 dereferenceable(1560) %0, i32 noundef %1) unnamed_addr #0 align 2 {
  %3 = getelementptr inbounds nuw i8, ptr %0, i64 1544
  %4 = load i8, ptr %3, align 8, !tbaa !6, !range !71, !noundef !72
  %5 = trunc nuw i8 %4 to i1
  br i1 %5, label %6, label %8

6:                                                ; preds = %2
  %7 = getelementptr inbounds nuw i8, ptr %0, i64 1448
  tail call void @_ZN3zmq11io_object_t12cancel_timerEi(ptr noundef nonnull align 8 dereferenceable(16) %7, i32 noundef 2)
  store i8 0, ptr %3, align 8, !tbaa !6
  br label %8

8:                                                ; preds = %6, %2
  tail call void @_ZN3zmq23stream_connecter_base_t12process_termEi(ptr noundef nonnull align 8 dereferenceable(1544) %0, i32 noundef %1)
  ret void
}